target datalayout = "e-m:e-p270:32:32-p271:32:32-p272:64:64-i64:64-i128:128-f80:128-n8:16:32:64-S128"
target triple = "x86_64-unknown-linux-gnu"

%struct.QemuMutex = type { %union.pthread_mutex_t, i8 }
%union.pthread_mutex_t = type { %struct.__pthread_mutex_s }
%struct.__pthread_mutex_s = type { i32, i32, i32, i32, i32, i16, i16, %struct.__pthread_internal_list }
%struct.__pthread_internal_list = type { ptr, ptr }
%struct.QemuEvent = type { i32, i8 }
%struct.QemuThread = type { i64 }
%struct.QemuSemaphore = type { %struct.QemuMutex, %struct.QemuCond, i32 }
%struct.QemuCond = type { %union.pthread_cond_t, i8 }
%union.pthread_cond_t = type { %struct.__pthread_cond_s }
%struct.__pthread_cond_s = type { %union.__atomic_wide_counter, %union.__atomic_wide_counter, [2 x i32], [2 x i32], i32, i32, [2 x i32] }
%union.__atomic_wide_counter = type { i64 }
%struct.Object = type { ptr, ptr, ptr, i32, ptr }
%struct.MigrationState = type { %struct.DeviceState, %struct.QemuThread, ptr, ptr, ptr, ptr, %struct.QemuSemaphore, ptr, %struct.QemuMutex, %struct.QemuSemaphore, i64, double, i64, i64, i64, %struct.MigrationParameters, i32, %struct.anon.6, double, i64, i64, i64, i64, i64, [23 x i8], i64, i32, i8, i8, i8, i8, %struct.QemuSemaphore, %struct.QemuSemaphore, %struct.QemuSemaphore, %struct.QemuEvent, i64, ptr, ptr, %struct.QemuMutex, i8, i8, i8, i8, %struct.QemuSemaphore, i8, i8, i8, i8, ptr, ptr, i8, i8 }
%struct.DeviceState = type { %struct.Object, ptr, ptr, i8, i8, i64, ptr, i32, i8, ptr, %struct.NamedGPIOListHead, %struct.NamedClockListHead, %struct.BusStateHead, i32, i32, i32, %struct.ResettableState, ptr, %struct.MemReentrancyGuard }
%struct.NamedGPIOListHead = type { ptr }
%struct.NamedClockListHead = type { ptr }
%struct.BusStateHead = type { ptr }
%struct.ResettableState = type { i32, i8, i8 }
%struct.MemReentrancyGuard = type { i8 }
%struct.MigrationParameters = type { i8, i64, i8, i64, i8, i64, i8, i64, i8, i8, i8, i8, i8, i8, i8, i8, i8, i8, i8, i8, i8, i8, i8, i8, ptr, ptr, ptr, i8, i64, i8, i64, i8, i64, i8, i32, i8, i8, i8, i8, i8, i64, i8, i64, i8, i8, i8, i32, i8, i8, i8, i8, i8, ptr, i8, i64, i8, i64, i8, i32 }
%struct.anon.6 = type { ptr, %struct.QemuThread, i8, %struct.QemuSemaphore, %struct.QemuSemaphore }

; Function Attrs: nounwind sspstrong uwtable
define dso_local void @postcopy_preempt_setup(ptr noundef %s) #0 {
entry:
  %s.addr = alloca ptr, align 8
  store ptr %s, ptr %s.addr, align 8
  %0 = load ptr, ptr %s.addr, align 8
  call void @socket_send_channel_create(ptr noundef @postcopy_preempt_send_channel_new, ptr noundef %0)
  ret void
}

; Function Attrs: nounwind sspstrong uwtable
define dso_local i32 @postcopy_preempt_establish_channel(ptr noundef %s) #0 {
entry:
  %retval = alloca i32, align 4
  %s.addr = alloca ptr, align 8
  store ptr %s, ptr %s.addr, align 8
  %call = call zeroext i1 @migrate_postcopy_preempt()
  br i1 %call, label %if.end, label %if.then

if.then:                                          ; preds = %entry
  store i32 0, ptr %retval, align 4
  br label %return

if.end:                                           ; preds = %entry
  %0 = load ptr, ptr %s.addr, align 8
  %preempt_pre_7_2 = getelementptr inbounds %struct.MigrationState, ptr %0, i32 0, i32 45
  %1 = load i8, ptr %preempt_pre_7_2, align 1
  %tobool = trunc i8 %1 to i1
  br i1 %tobool, label %if.end2, label %if.then1

if.then1:                                         ; preds = %if.end
  %2 = load ptr, ptr %s.addr, align 8
  call void @postcopy_preempt_setup(ptr noundef %2)
  br label %if.end2

if.end2:                                          ; preds = %if.then1, %if.end
  %3 = load ptr, ptr %s.addr, align 8
  %postcopy_qemufile_src_sem = getelementptr inbounds %struct.MigrationState, ptr %3, i32 0, i32 6
  call void @qemu_sem_wait(ptr noundef %postcopy_qemufile_src_sem)
  %4 = load ptr, ptr %s.addr, align 8
  %postcopy_qemufile_src = getelementptr inbounds %struct.MigrationState, ptr %4, i32 0, i32 5
  %5 = load ptr, ptr %postcopy_qemufile_src, align 8
  %tobool3 = icmp ne ptr %5, null
  %cond = select i1 %tobool3, i32 0, i32 -1
  store i32 %cond, ptr %retval, align 4
  br label %return

return:                                           ; preds = %if.end2, %if.then
  %6 = load i32, ptr %retval, align 4
  ret i32 %6
}