; Function Attrs: nounwind sspstrong uwtable
define dso_local range(i32 -1, 1) i32 @postcopy_preempt_establish_channel(ptr noundef %s) local_unnamed_addr #0 {
entry:
  %call = tail call zeroext i1 @migrate_postcopy_preempt() #16
  br i1 %call, label %if.end, label %return

if.end:                                           ; preds = %entry
  %preempt_pre_7_2 = getelementptr inbounds nuw i8, ptr %s, i64 1657
  %0 = load i8, ptr %preempt_pre_7_2, align 1
  %tobool = trunc i8 %0 to i1
  br i1 %tobool, label %if.end2, label %if.then1

if.then1:                                         ; preds = %if.end
  tail call void @socket_send_channel_create(ptr noundef nonnull @postcopy_preempt_send_channel_new, ptr noundef nonnull %s) #16
  br label %if.end2

if.end2:                                          ; preds = %if.then1, %if.end
  %postcopy_qemufile_src_sem = getelementptr inbounds nuw i8, ptr %s, i64 200
  tail call void @qemu_sem_wait(ptr noundef nonnull %postcopy_qemufile_src_sem) #16
  %postcopy_qemufile_src = getelementptr inbounds nuw i8, ptr %s, i64 192
  %1 = load ptr, ptr %postcopy_qemufile_src, align 8
  %tobool3.not = icmp eq ptr %1, null
  %cond = sext i1 %tobool3.not to i32
  br label %return

return:                                           ; preds = %entry, %if.end2
  %retval.0 = phi i32 [ %cond, %if.end2 ], [ 0, %entry ]
  ret i32 %retval.0
}